; Function Attrs: mustprogress uwtable
define void @_ZN6icu_7513StringMatcher7setDataEPKNS_23TransliterationRuleDataE(ptr noundef nonnull align 8 dereferenceable(108) %this, ptr noundef %d) unnamed_addr #1 align 2 {
entry:
  %data = getelementptr inbounds i8, ptr %this, i64 88
  store ptr %d, ptr %data, align 8
  %fUnion.i.i = getelementptr inbounds i8, ptr %this, i64 32
  %fLength.i = getelementptr inbounds i8, ptr %this, i64 36
  %0 = load i16, ptr %fUnion.i.i, align 8
  %cmp.i.i5 = icmp slt i16 %0, 0
  %1 = ashr i16 %0, 5
  %shr.i.i6 = sext i16 %1 to i32
  %2 = load i32, ptr %fLength.i, align 4
  %cond.i7 = select i1 %cmp.i.i5, i32 %2, i32 %shr.i.i6
  %cmp9 = icmp sgt i32 %cond.i7, 0
  br i1 %cmp9, label %while.body.lr.ph, label %while.end

while.body.lr.ph:                                 ; preds = %entry
  %pattern = getelementptr inbounds i8, ptr %this, i64 24
  br label %while.body

while.body:                                       ; preds = %while.body.lr.ph, %if.end
  %i.010 = phi i32 [ 0, %while.body.lr.ph ], [ %add, %if.end ]
  %call3 = tail call noundef i32 @_ZNK6icu_7513UnicodeString8char32AtEi(ptr noundef nonnull align 8 dereferenceable(64) %pattern, i32 noundef %i.010)
  %3 = load ptr, ptr %data, align 8
  %call5 = tail call noundef ptr @_ZNK6icu_7523TransliterationRuleData6lookupEi(ptr noundef nonnull align 8 dereferenceable(1168) %3, i32 noundef %call3)
  %cmp6.not = icmp eq ptr %call5, null
  br i1 %cmp6.not, label %if.end, label %if.then

if.then:                                          ; preds = %while.body
  %4 = load ptr, ptr %data, align 8
  %vtable = load ptr, ptr %call5, align 8
  %vfn = getelementptr inbounds i8, ptr %vtable, i64 48
  %5 = load ptr, ptr %vfn, align 8
  tail call void %5(ptr noundef nonnull align 8 dereferenceable(8) %call5, ptr noundef %4)
  br label %if.end

if.end:                                           ; preds = %if.then, %while.body
  %cmp8 = icmp ult i32 %call3, 65536
  %cond = select i1 %cmp8, i32 1, i32 2
  %add = add nuw nsw i32 %cond, %i.010
  %6 = load i16, ptr %fUnion.i.i, align 8
  %cmp.i.i = icmp slt i16 %6, 0
  %7 = ashr i16 %6, 5
  %shr.i.i = sext i16 %7 to i32
  %8 = load i32, ptr %fLength.i, align 4
  %cond.i = select i1 %cmp.i.i, i32 %8, i32 %shr.i.i
  %cmp = icmp slt i32 %add, %cond.i
  br i1 %cmp, label %while.body, label %while.end, !llvm.loop !9

while.end:                                        ; preds = %if.end, %entry
  ret void
}